target datalayout = "e-m:e-p270:32:32-p271:32:32-p272:64:64-i64:64-i128:128-f80:128-n8:16:32:64-S128"
target triple = "x86_64-pc-linux-gnu"

@.str = private unnamed_addr constant [121 x i8] c"generated/home/dtcxzyw/WorkSpace/Projects/compilers/llvm-opt-benchmark/bench/open3d/Open3D/examples/cpp/OdometryRGBD.cpp\00", align 1
@__PRETTY_FUNCTION__._Z9PrintHelpPPc = private unnamed_addr constant [24 x i8] c"void PrintHelp(char **)\00", align 1
@.str.6 = private unnamed_addr constant [7 x i8] c"Usage:\00", align 1
@.str.7 = private unnamed_addr constant [89 x i8] c"    > OdometryRGBD [color_source] [depth_source] [color_target] [depth_target] [options]\00", align 1
@.str.8 = private unnamed_addr constant [51 x i8] c"      Given RGBD image pair, estimate 6D odometry.\00", align 1
@.str.9 = private unnamed_addr constant [1 x i8] zeroinitializer, align 1
@.str.10 = private unnamed_addr constant [15 x i8] c"Basic options:\00", align 1
@.str.11 = private unnamed_addr constant [40 x i8] c"    --camera_intrinsic [intrinsic_path]\00", align 1
@.str.12 = private unnamed_addr constant [58 x i8] c"    --rgbd_type [number] (0:Redwood, 1:TUM, 2:SUN, 3:NYU)\00", align 1
@.str.13 = private unnamed_addr constant [62 x i8] c"    --verbose : indicate this to display detailed information\00", align 1
@.str.14 = private unnamed_addr constant [55 x i8] c"    --hybrid : compute odometry using hybrid objective\00", align 1

; Function Attrs: mustprogress ssp uwtable
define dso_local void @_Z9PrintHelpPPc(ptr noundef %0) #3 {
  %2 = alloca ptr, align 8
  store ptr %0, ptr %2, align 8, !tbaa !35
  call void @_ZN6open3d18PrintOpen3DVersionEv()
  call void @_ZN6open3d7utility6Logger8LogInfo_IJEEEvPKciS4_S4_DpOT_(ptr noundef @.str, i32 noundef 18, ptr noundef @__PRETTY_FUNCTION__._Z9PrintHelpPPc, ptr noundef @.str.6)
  call void @_ZN6open3d7utility6Logger8LogInfo_IJEEEvPKciS4_S4_DpOT_(ptr noundef @.str, i32 noundef 19, ptr noundef @__PRETTY_FUNCTION__._Z9PrintHelpPPc, ptr noundef @.str.7)
  call void @_ZN6open3d7utility6Logger8LogInfo_IJEEEvPKciS4_S4_DpOT_(ptr noundef @.str, i32 noundef 20, ptr noundef @__PRETTY_FUNCTION__._Z9PrintHelpPPc, ptr noundef @.str.8)
  call void @_ZN6open3d7utility6Logger8LogInfo_IJEEEvPKciS4_S4_DpOT_(ptr noundef @.str, i32 noundef 21, ptr noundef @__PRETTY_FUNCTION__._Z9PrintHelpPPc, ptr noundef @.str.9)
  call void @_ZN6open3d7utility6Logger8LogInfo_IJEEEvPKciS4_S4_DpOT_(ptr noundef @.str, i32 noundef 22, ptr noundef @__PRETTY_FUNCTION__._Z9PrintHelpPPc, ptr noundef @.str.10)
  call void @_ZN6open3d7utility6Logger8LogInfo_IJEEEvPKciS4_S4_DpOT_(ptr noundef @.str, i32 noundef 23, ptr noundef @__PRETTY_FUNCTION__._Z9PrintHelpPPc, ptr noundef @.str.11)
  call void @_ZN6open3d7utility6Logger8LogInfo_IJEEEvPKciS4_S4_DpOT_(ptr noundef @.str, i32 noundef 24, ptr noundef @__PRETTY_FUNCTION__._Z9PrintHelpPPc, ptr noundef @.str.12)
  call void @_ZN6open3d7utility6Logger8LogInfo_IJEEEvPKciS4_S4_DpOT_(ptr noundef @.str, i32 noundef 25, ptr noundef @__PRETTY_FUNCTION__._Z9PrintHelpPPc, ptr noundef @.str.13)
  call void @_ZN6open3d7utility6Logger8LogInfo_IJEEEvPKciS4_S4_DpOT_(ptr noundef @.str, i32 noundef 26, ptr noundef @__PRETTY_FUNCTION__._Z9PrintHelpPPc, ptr noundef @.str.14)
  call void @_ZN6open3d7utility6Logger8LogInfo_IJEEEvPKciS4_S4_DpOT_(ptr noundef @.str, i32 noundef 28, ptr noundef @__PRETTY_FUNCTION__._Z9PrintHelpPPc, ptr noundef @.str.9)
  ret void
}