; Function Attrs: mustprogress ssp uwtable
define dso_local void @_Z9PrintHelpPPc(ptr readnone captures(none) %0) local_unnamed_addr #4 {
  tail call void @_ZN6open3d18PrintOpen3DVersionEv()
  tail call void @_ZN6open3d7utility6Logger8LogInfo_IJEEEvPKciS4_S4_DpOT_(ptr noundef nonnull @.str, i32 noundef 18, ptr noundef nonnull @__PRETTY_FUNCTION__._Z9PrintHelpPPc, ptr noundef nonnull @.str.6)
  tail call void @_ZN6open3d7utility6Logger8LogInfo_IJEEEvPKciS4_S4_DpOT_(ptr noundef nonnull @.str, i32 noundef 19, ptr noundef nonnull @__PRETTY_FUNCTION__._Z9PrintHelpPPc, ptr noundef nonnull @.str.7)
  tail call void @_ZN6open3d7utility6Logger8LogInfo_IJEEEvPKciS4_S4_DpOT_(ptr noundef nonnull @.str, i32 noundef 20, ptr noundef nonnull @__PRETTY_FUNCTION__._Z9PrintHelpPPc, ptr noundef nonnull @.str.8)
  tail call void @_ZN6open3d7utility6Logger8LogInfo_IJEEEvPKciS4_S4_DpOT_(ptr noundef nonnull @.str, i32 noundef 21, ptr noundef nonnull @__PRETTY_FUNCTION__._Z9PrintHelpPPc, ptr noundef nonnull @.str.9)
  tail call void @_ZN6open3d7utility6Logger8LogInfo_IJEEEvPKciS4_S4_DpOT_(ptr noundef nonnull @.str, i32 noundef 22, ptr noundef nonnull @__PRETTY_FUNCTION__._Z9PrintHelpPPc, ptr noundef nonnull @.str.10)
  tail call void @_ZN6open3d7utility6Logger8LogInfo_IJEEEvPKciS4_S4_DpOT_(ptr noundef nonnull @.str, i32 noundef 23, ptr noundef nonnull @__PRETTY_FUNCTION__._Z9PrintHelpPPc, ptr noundef nonnull @.str.11)
  tail call void @_ZN6open3d7utility6Logger8LogInfo_IJEEEvPKciS4_S4_DpOT_(ptr noundef nonnull @.str, i32 noundef 24, ptr noundef nonnull @__PRETTY_FUNCTION__._Z9PrintHelpPPc, ptr noundef nonnull @.str.12)
  tail call void @_ZN6open3d7utility6Logger8LogInfo_IJEEEvPKciS4_S4_DpOT_(ptr noundef nonnull @.str, i32 noundef 25, ptr noundef nonnull @__PRETTY_FUNCTION__._Z9PrintHelpPPc, ptr noundef nonnull @.str.13)
  tail call void @_ZN6open3d7utility6Logger8LogInfo_IJEEEvPKciS4_S4_DpOT_(ptr noundef nonnull @.str, i32 noundef 26, ptr noundef nonnull @__PRETTY_FUNCTION__._Z9PrintHelpPPc, ptr noundef nonnull @.str.14)
  tail call void @_ZN6open3d7utility6Logger8LogInfo_IJEEEvPKciS4_S4_DpOT_(ptr noundef nonnull @.str, i32 noundef 28, ptr noundef nonnull @__PRETTY_FUNCTION__._Z9PrintHelpPPc, ptr noundef nonnull @.str.9)
  ret void
}